Certificate:
    Data:
        Version: 3 (0x2)
        Serial Number: 3 (0x3)
    Signature Algorithm: sha256WithRSAEncryption
        Issuer: C=AU, ST=Some-State, O=Internet Widgits Pty Ltd, CN=CA
        Validity
            Not Before: Feb 24 16:01:43 2020 GMT
            Not After : Feb 23 16:01:43 2021 GMT
        Subject: C=AU, ST=Some-State, O=Internet Widgits Pty Ltd, CN=Usuario 2 SER
        Subject Public Key Info:
            Public Key Algorithm: rsaEncryption
                Public-Key: (2048 bit)
                Modulus:
                    00:b8:56:be:78:0f:93:76:8b:43:4e:a0:e5:c7:04:
                    2f:e8:0e:ee:9c:5d:b9:83:da:e9:01:d2:c5:8c:71:
                    b7:ef:2d:3d:13:df:62:8d:38:77:30:00:95:12:09:
                    ff:cf:bc:a0:e7:3b:67:e9:0e:b7:62:59:71:51:8e:
                    09:e5:0f:fa:c0:55:93:72:c3:74:80:ff:97:5c:b9:
                    4f:11:9d:1f:c5:28:bd:33:bf:b6:21:98:0a:a0:99:
                    3d:d1:c2:1f:f2:cf:1a:41:25:d1:0c:70:34:10:53:
                    46:84:da:10:e5:cd:9f:95:57:f9:d1:19:6b:e2:ec:
                    2c:28:b4:34:15:fb:8a:8e:7c:dc:11:13:1a:8c:9a:
                    13:b5:1d:60:4d:ba:47:fb:69:7c:ea:d2:3d:b7:61:
                    99:ca:d5:c2:a0:b9:26:c5:fd:bf:ca:7b:e0:76:57:
                    c9:0f:03:82:5b:bf:63:b9:4c:0c:23:33:ba:62:11:
                    fd:98:a0:53:a2:99:3e:5e:c3:1c:b3:54:2a:09:71:
                    5a:5a:e9:b0:e3:0f:bf:8d:1d:d9:b4:12:d9:95:77:
                    c3:0f:8f:6e:7e:98:db:37:58:25:bf:eb:41:58:49:
                    b6:05:b8:10:ec:cf:bc:0e:6b:aa:35:74:6d:fa:e1:
                    35:bb:b7:52:39:55:80:7a:a9:81:66:23:c9:a6:57:
                    fd:15
                Exponent: 65537 (0x10001)
        X509v3 extensions:
            X509v3 Basic Constraints: 
                CA:FALSE
            Netscape Comment: 
                OpenSSL Generated Certificate
            X509v3 Subject Key Identifier: 
                2B:16:5B:B2:94:53:8F:7C:BD:C7:B7:3D:2D:8E:D0:89:8C:73:C1:8B
            X509v3 Authority Key Identifier: 
                keyid:DA:AE:77:53:0F:AD:78:EB:65:26:42:B0:E5:8D:6D:AA:AE:BA:22:F6

    Signature Algorithm: sha256WithRSAEncryption
         5a:85:a0:75:42:56:fc:60:59:2f:1c:00:5d:94:87:f7:21:76:
         65:f2:d5:76:58:2c:59:0d:19:ac:dd:9a:10:a2:fc:09:49:57:
         08:38:0d:0b:c4:9c:99:5d:cf:e8:fc:01:c3:a8:06:09:79:7d:
         12:e8:41:be:10:55:56:02:6a:f5:d6:15:97:c6:39:62:78:27:
         8c:61:35:c0:5b:b1:66:76:c7:2a:9b:bb:c6:86:f9:1f:d7:1b:
         0e:01:bd:ba:19:a1:4c:d0:e8:69:f9:d0:46:26:57:76:e9:73:
         d2:57:8c:d5:de:8d:ea:e7:91:ec:66:3a:95:6f:46:bb:74:ae:
         49:b2:f9:ee:83:cd:4e:d0:cb:9c:be:be:e6:5b:25:f9:92:c4:
         12:86:dd:7d:ea:3a:c0:c6:17:98:ea:bd:27:d5:1e:96:88:52:
         65:61:45:84:1f:48:e2:d5:03:82:29:29:c2:d1:2a:e7:2c:09:
         c8:86:47:1a:64:74:45:3f:38:17:7a:f9:0e:13:b5:9a:07:4d:
         d5:76:ec:35:3e:85:09:9b:08:51:60:1b:04:32:1b:51:70:2d:
         19:60:5b:82:9a:47:a7:90:c8:2c:07:f7:35:0f:52:f0:97:55:
         a4:fd:30:cc:1e:8a:4a:2f:89:86:ca:a8:13:d0:94:1b:c8:c8:
         f8:a1:8d:de
-----BEGIN CERTIFICATE-----
MIIDpTCCAo2gAwIBAgIBAzANBgkqhkiG9w0BAQsFADBSMQswCQYDVQQGEwJBVTET
MBEGA1UECAwKU29tZS1TdGF0ZTEhMB8GA1UECgwYSW50ZXJuZXQgV2lkZ2l0cyBQ
dHkgTHRkMQswCQYDVQQDDAJDQTAeFw0yMDAyMjQxNjAxNDNaFw0yMTAyMjMxNjAx
NDNaMF0xCzAJBgNVBAYTAkFVMRMwEQYDVQQIDApTb21lLVN0YXRlMSEwHwYDVQQK
DBhJbnRlcm5ldCBXaWRnaXRzIFB0eSBMdGQxFjAUBgNVBAMMDVVzdWFyaW8gMiBT
RVIwggEiMA0GCSqGSIb3DQEBAQUAA4IBDwAwggEKAoIBAQC4Vr54D5N2i0NOoOXH
BC/oDu6cXbmD2ukB0sWMcbfvLT0T32KNOHcwAJUSCf/PvKDnO2fpDrdiWXFRjgnl
D/rAVZNyw3SA/5dcuU8RnR/FKL0zv7YhmAqgmT3Rwh/yzxpBJdEMcDQQU0aE2hDl
zZ+VV/nRGWvi7CwotDQV+4qOfNwRExqMmhO1HWBNukf7aXzq0j23YZnK1cKguSbF
/b/Ke+B2V8kPA4Jbv2O5TAwjM7piEf2YoFOimT5ewxyzVCoJcVpa6bDjD7+NHdm0
EtmVd8MPj25+mNs3WCW/60FYSbYFuBDsz7wOa6o1dG364TW7t1I5VYB6qYFmI8mm
V/0VAgMBAAGjezB5MAkGA1UdEwQCMAAwLAYJYIZIAYb4QgENBB8WHU9wZW5TU0wg
R2VuZXJhdGVkIENlcnRpZmljYXRlMB0GA1UdDgQWBBQrFluylFOPfL3Htz0tjtCJ
jHPBizAfBgNVHSMEGDAWgBTarndTD61462UmQrDljW2qrroi9jANBgkqhkiG9w0B
AQsFAAOCAQEAWoWgdUJW/GBZLxwAXZSH9yF2ZfLVdlgsWQ0ZrN2aEKL8CUlXCDgN
C8ScmV3P6PwBw6gGCXl9EuhBvhBVVgJq9dYVl8Y5YngnjGE1wFuxZnbHKpu7xob5
H9cbDgG9uhmhTNDoafnQRiZXdulz0leM1d6N6ueR7GY6lW9Gu3SuSbL57oPNTtDL
nL6+5lsl+ZLEEobdfeo6wMYXmOq9J9UelohSZWFFhB9I4tUDgikpwtEq5ywJyIZH
GmR0RT84F3r5DhO1mgdN1XbsNT6FCZsIUWAbBDIbUXAtGWBbgppHp5DILAf3NQ9S
8JdVpP0wzB6KSi+JhsqoE9CUG8jI+KGN3g==
-----END CERTIFICATE-----
