Certificate:
    Data:
        Version: 3 (0x2)
        Serial Number: 2 (0x2)
    Signature Algorithm: sha256WithRSAEncryption
        Issuer: C=AU, ST=Some-State, O=Internet Widgits Pty Ltd, CN=CA
        Validity
            Not Before: Feb 24 15:38:38 2020 GMT
            Not After : Feb 23 15:38:38 2021 GMT
        Subject: C=AU, ST=Some-State, O=Internet Widgits Pty Ltd, CN=Usuario2 SER
        Subject Public Key Info:
            Public Key Algorithm: rsaEncryption
                Public-Key: (2048 bit)
                Modulus:
                    00:a8:2c:71:39:31:a1:fe:eb:00:c9:6e:32:27:0b:
                    58:65:2e:a9:96:35:db:27:8d:ed:92:20:34:d6:12:
                    a0:13:8b:52:85:c8:d6:27:e7:6a:60:8f:8d:e5:79:
                    27:d5:23:46:8b:7e:f9:ef:36:2b:39:53:e4:69:39:
                    04:f0:86:9c:b6:46:01:56:74:b8:d5:cb:33:8d:ae:
                    78:1b:ab:cd:18:6c:13:ee:2a:50:01:70:c5:33:32:
                    ca:92:cf:24:17:c3:91:da:82:f3:0b:1c:4b:6a:ff:
                    11:61:20:d3:14:c1:78:01:43:49:16:ba:7d:b3:c7:
                    d8:a7:e2:92:72:f7:b0:2f:c7:e0:2a:90:f5:ff:24:
                    a4:cb:c5:7d:52:c5:d6:83:e3:d7:fc:70:c1:f4:88:
                    39:ff:62:40:e7:c1:ab:4b:43:92:65:fa:11:e2:44:
                    6f:e1:08:7b:fa:79:20:83:0d:e9:da:4e:96:59:b4:
                    45:49:12:50:ba:58:ad:19:0a:59:02:af:bb:5f:21:
                    92:4a:14:f6:8f:68:8b:f4:04:96:f3:39:9a:f8:94:
                    16:98:d8:38:22:7a:22:22:6a:c4:5c:61:7f:a3:53:
                    2f:c8:bd:2b:93:b5:c3:56:af:91:eb:26:f8:7a:c2:
                    79:99:b8:84:a6:54:2a:0b:59:41:78:a2:8a:32:38:
                    17:9b
                Exponent: 65537 (0x10001)
        X509v3 extensions:
            X509v3 Basic Constraints: 
                CA:FALSE
            Netscape Comment: 
                OpenSSL Generated Certificate
            X509v3 Subject Key Identifier: 
                ED:B1:8F:EC:E7:CA:0D:A8:4A:4F:96:C7:10:FD:DA:53:D4:9D:60:4F
            X509v3 Authority Key Identifier: 
                keyid:DA:AE:77:53:0F:AD:78:EB:65:26:42:B0:E5:8D:6D:AA:AE:BA:22:F6

    Signature Algorithm: sha256WithRSAEncryption
         18:ab:de:c9:cd:65:e0:71:8f:87:52:df:14:e8:93:1e:a9:05:
         5a:40:bf:43:be:7d:dc:44:2b:98:ce:e3:5e:24:56:2c:aa:c5:
         f9:21:58:93:7f:46:14:34:f3:d7:67:8d:12:52:c5:96:e1:6b:
         a5:eb:8f:56:46:f1:c3:56:7c:f2:25:5d:3f:98:b5:a8:6e:7a:
         af:fc:e1:07:6a:63:24:f5:2f:d0:f1:0d:80:96:cc:66:6f:59:
         82:05:64:b7:e8:18:98:79:68:af:84:11:e1:8d:f9:7b:0f:4d:
         6a:cb:7f:7c:b7:d9:ff:32:f6:f9:e8:fe:a8:cb:23:46:4c:d0:
         55:cb:6f:a0:fa:be:a8:01:de:3c:98:ed:94:43:53:92:fd:f7:
         93:ef:24:7c:48:31:e5:d1:27:a8:24:79:ad:e9:f9:d4:ae:9d:
         90:e7:ef:52:ad:22:ec:98:d0:51:86:c2:18:95:b3:6e:61:4d:
         bd:b2:74:04:55:86:8b:20:8f:8a:e4:41:d2:24:54:43:a6:63:
         67:61:c4:48:33:b3:c7:3e:30:cf:81:82:9c:7c:ec:a6:c9:60:
         4c:dc:11:dc:2a:0b:7b:27:a6:99:d6:01:af:e6:fa:7f:9a:dc:
         49:ce:e1:d1:9a:57:cf:d1:17:9e:a1:9a:87:3a:33:db:05:b6:
         c4:4a:fb:d3
-----BEGIN CERTIFICATE-----
MIIDpDCCAoygAwIBAgIBAjANBgkqhkiG9w0BAQsFADBSMQswCQYDVQQGEwJBVTET
MBEGA1UECAwKU29tZS1TdGF0ZTEhMB8GA1UECgwYSW50ZXJuZXQgV2lkZ2l0cyBQ
dHkgTHRkMQswCQYDVQQDDAJDQTAeFw0yMDAyMjQxNTM4MzhaFw0yMTAyMjMxNTM4
MzhaMFwxCzAJBgNVBAYTAkFVMRMwEQYDVQQIDApTb21lLVN0YXRlMSEwHwYDVQQK
DBhJbnRlcm5ldCBXaWRnaXRzIFB0eSBMdGQxFTATBgNVBAMMDFVzdWFyaW8yIFNF
UjCCASIwDQYJKoZIhvcNAQEBBQADggEPADCCAQoCggEBAKgscTkxof7rAMluMicL
WGUuqZY12yeN7ZIgNNYSoBOLUoXI1ifnamCPjeV5J9UjRot++e82KzlT5Gk5BPCG
nLZGAVZ0uNXLM42ueBurzRhsE+4qUAFwxTMyypLPJBfDkdqC8wscS2r/EWEg0xTB
eAFDSRa6fbPH2KfiknL3sC/H4CqQ9f8kpMvFfVLF1oPj1/xwwfSIOf9iQOfBq0tD
kmX6EeJEb+EIe/p5IIMN6dpOllm0RUkSULpYrRkKWQKvu18hkkoU9o9oi/QElvM5
mviUFpjYOCJ6IiJqxFxhf6NTL8i9K5O1w1avkesm+HrCeZm4hKZUKgtZQXiiijI4
F5sCAwEAAaN7MHkwCQYDVR0TBAIwADAsBglghkgBhvhCAQ0EHxYdT3BlblNTTCBH
ZW5lcmF0ZWQgQ2VydGlmaWNhdGUwHQYDVR0OBBYEFO2xj+znyg2oSk+WxxD92lPU
nWBPMB8GA1UdIwQYMBaAFNqud1MPrXjrZSZCsOWNbaquuiL2MA0GCSqGSIb3DQEB
CwUAA4IBAQAYq97JzWXgcY+HUt8U6JMeqQVaQL9Dvn3cRCuYzuNeJFYsqsX5IViT
f0YUNPPXZ40SUsWW4Wul649WRvHDVnzyJV0/mLWobnqv/OEHamMk9S/Q8Q2Alsxm
b1mCBWS36BiYeWivhBHhjfl7D01qy398t9n/Mvb56P6oyyNGTNBVy2+g+r6oAd48
mO2UQ1OS/feT7yR8SDHl0SeoJHmt6fnUrp2Q5+9SrSLsmNBRhsIYlbNuYU29snQE
VYaLII+K5EHSJFRDpmNnYcRIM7PHPjDPgYKcfOymyWBM3BHcKgt7J6aZ1gGv5vp/
mtxJzuHRmlfP0ReeoZqHOjPbBbbESvvT
-----END CERTIFICATE-----
