Certificate:
    Data:
        Version: 3 (0x2)
        Serial Number: 1 (0x1)
    Signature Algorithm: sha256WithRSAEncryption
        Issuer: C=AU, ST=Some-State, O=Internet Widgits Pty Ltd, CN=CA
        Validity
            Not Before: Feb 24 15:38:23 2020 GMT
            Not After : Feb 23 15:38:23 2021 GMT
        Subject: C=AU, ST=Some-State, O=Internet Widgits Pty Ltd, CN=Usuario 1 SER
        Subject Public Key Info:
            Public Key Algorithm: rsaEncryption
                Public-Key: (2048 bit)
                Modulus:
                    00:aa:7b:9b:d5:5c:13:69:f1:94:37:d1:66:1e:44:
                    66:6a:79:58:56:54:56:29:7b:d9:d4:c1:bd:74:b9:
                    9e:7d:03:e2:48:98:a2:1e:18:a3:69:8c:ec:fa:7b:
                    5f:32:94:95:ad:50:6d:7d:6c:83:37:82:41:3e:8e:
                    84:3f:aa:9e:74:02:65:ed:0f:4c:c8:d8:ba:59:f6:
                    82:e6:ea:73:4b:98:a0:da:cd:e2:bb:bb:0a:bc:bf:
                    79:8c:84:dd:7b:1b:7a:ff:2b:89:bf:f8:58:15:56:
                    fa:e3:75:88:fa:42:e9:ee:64:74:ef:1d:96:3b:06:
                    15:0b:c9:53:3c:aa:55:59:ca:e2:ae:fb:d5:ec:5b:
                    9a:92:a7:11:6b:fd:8e:ee:17:d1:81:c0:8d:e9:e4:
                    bf:b0:29:4b:52:6d:39:00:7a:d2:fb:2d:96:6e:f1:
                    3d:6f:85:28:3b:45:d0:a7:93:27:a4:ad:b6:89:2b:
                    40:2f:5d:fc:d3:8d:7b:c4:11:92:d1:26:dd:4b:4e:
                    9c:c9:7a:31:d1:1c:17:fa:7b:5f:b0:42:d3:6d:5e:
                    02:0c:ea:e8:4a:ca:c8:26:8e:cc:08:de:a4:d0:3b:
                    fa:9b:ea:30:07:f1:b9:be:1c:6e:bd:a8:89:39:0b:
                    9c:55:16:73:98:20:a2:9f:66:ff:04:79:f5:20:5f:
                    8f:e9
                Exponent: 65537 (0x10001)
        X509v3 extensions:
            X509v3 Basic Constraints: 
                CA:FALSE
            Netscape Comment: 
                OpenSSL Generated Certificate
            X509v3 Subject Key Identifier: 
                F3:31:7E:C0:89:11:75:76:5F:FD:94:E6:C4:3F:33:1C:34:36:88:AD
            X509v3 Authority Key Identifier: 
                keyid:DA:AE:77:53:0F:AD:78:EB:65:26:42:B0:E5:8D:6D:AA:AE:BA:22:F6

    Signature Algorithm: sha256WithRSAEncryption
         08:72:f9:07:8f:a9:18:cd:94:a0:fb:fa:13:3c:28:73:c8:64:
         86:24:a8:91:3e:70:12:d4:91:ee:ab:d6:4a:63:9b:89:d8:05:
         90:06:b0:82:4b:b7:09:42:08:49:c8:a0:0c:5b:c0:1f:02:f4:
         72:d7:c0:30:47:61:5d:fd:fa:64:a5:a2:a1:63:60:85:a5:88:
         b1:16:1c:90:36:12:98:2b:07:39:ae:a5:0b:57:15:4f:e6:7f:
         e1:b1:39:45:ac:63:e0:5c:b9:11:4c:9c:36:f6:c1:9d:ac:26:
         46:f2:ef:99:51:71:11:09:6c:64:fc:89:69:7d:95:eb:58:e3:
         ea:2c:d7:5e:07:f8:2d:88:c5:cd:2f:80:bc:f2:38:87:ec:8d:
         11:26:5c:14:c0:39:bc:88:d1:c0:a0:8a:ac:f6:28:33:6d:05:
         04:0e:ef:92:bc:a3:53:73:8c:ba:d6:8d:0c:9b:da:29:8f:13:
         15:ed:10:7c:ae:57:ef:e1:1a:8d:37:f1:8e:95:d5:f8:88:ac:
         dd:b7:ff:e5:d5:fa:50:e8:53:84:6d:85:d9:f7:4a:32:d9:62:
         57:bf:8e:5e:03:f2:76:fd:cc:74:b1:49:d7:02:62:b3:ed:6e:
         60:c9:f5:a7:91:53:7f:b1:4e:30:f9:20:f1:57:c4:d3:25:17:
         23:16:95:8b
-----BEGIN CERTIFICATE-----
MIIDpTCCAo2gAwIBAgIBATANBgkqhkiG9w0BAQsFADBSMQswCQYDVQQGEwJBVTET
MBEGA1UECAwKU29tZS1TdGF0ZTEhMB8GA1UECgwYSW50ZXJuZXQgV2lkZ2l0cyBQ
dHkgTHRkMQswCQYDVQQDDAJDQTAeFw0yMDAyMjQxNTM4MjNaFw0yMTAyMjMxNTM4
MjNaMF0xCzAJBgNVBAYTAkFVMRMwEQYDVQQIDApTb21lLVN0YXRlMSEwHwYDVQQK
DBhJbnRlcm5ldCBXaWRnaXRzIFB0eSBMdGQxFjAUBgNVBAMMDVVzdWFyaW8gMSBT
RVIwggEiMA0GCSqGSIb3DQEBAQUAA4IBDwAwggEKAoIBAQCqe5vVXBNp8ZQ30WYe
RGZqeVhWVFYpe9nUwb10uZ59A+JImKIeGKNpjOz6e18ylJWtUG19bIM3gkE+joQ/
qp50AmXtD0zI2LpZ9oLm6nNLmKDazeK7uwq8v3mMhN17G3r/K4m/+FgVVvrjdYj6
QunuZHTvHZY7BhULyVM8qlVZyuKu+9XsW5qSpxFr/Y7uF9GBwI3p5L+wKUtSbTkA
etL7LZZu8T1vhSg7RdCnkyekrbaJK0AvXfzTjXvEEZLRJt1LTpzJejHRHBf6e1+w
QtNtXgIM6uhKysgmjswI3qTQO/qb6jAH8bm+HG69qIk5C5xVFnOYIKKfZv8EefUg
X4/pAgMBAAGjezB5MAkGA1UdEwQCMAAwLAYJYIZIAYb4QgENBB8WHU9wZW5TU0wg
R2VuZXJhdGVkIENlcnRpZmljYXRlMB0GA1UdDgQWBBTzMX7AiRF1dl/9lObEPzMc
NDaIrTAfBgNVHSMEGDAWgBTarndTD61462UmQrDljW2qrroi9jANBgkqhkiG9w0B
AQsFAAOCAQEACHL5B4+pGM2UoPv6Ezwoc8hkhiSokT5wEtSR7qvWSmObidgFkAaw
gku3CUIIScigDFvAHwL0ctfAMEdhXf36ZKWioWNghaWIsRYckDYSmCsHOa6lC1cV
T+Z/4bE5Raxj4Fy5EUycNvbBnawmRvLvmVFxEQlsZPyJaX2V61jj6izXXgf4LYjF
zS+AvPI4h+yNESZcFMA5vIjRwKCKrPYoM20FBA7vkryjU3OMutaNDJvaKY8TFe0Q
fK5X7+EajTfxjpXV+Iis3bf/5dX6UOhThG2F2fdKMtliV7+OXgPydv3MdLFJ1wJi
s+1uYMn1p5FTf7FOMPkg8VfE0yUXIxaViw==
-----END CERTIFICATE-----
